; Function Attrs: mustprogress nounwind uwtable
define internal void @_ZN4node12_GLOBAL__N_120BrotliDecoderContextD2Ev(ptr noundef nonnull align 8 dereferenceable(128) %this) unnamed_addr #3 align 2 {
entry:
  %state_ = getelementptr inbounds i8, ptr %this, i64 120
  %0 = load ptr, ptr %state_, align 8
  %cmp.not.i = icmp eq ptr %0, null
  br i1 %cmp.not.i, label %_ZNSt10unique_ptrI24BrotliDecoderStateStructN4node15FunctionDeleterIS0_XadL_Z28BrotliDecoderDestroyInstanceEEEEED2Ev.exit, label %if.then.i

if.then.i:                                        ; preds = %entry
  tail call void @BrotliDecoderDestroyInstance(ptr noundef nonnull %0) #22
  br label %_ZNSt10unique_ptrI24BrotliDecoderStateStructN4node15FunctionDeleterIS0_XadL_Z28BrotliDecoderDestroyInstanceEEEEED2Ev.exit

_ZNSt10unique_ptrI24BrotliDecoderStateStructN4node15FunctionDeleterIS0_XadL_Z28BrotliDecoderDestroyInstanceEEEEED2Ev.exit: ; preds = %entry, %if.then.i
  store ptr null, ptr %state_, align 8
  %error_string_ = getelementptr inbounds i8, ptr %this, i64 88
  tail call void @_ZNSt7__cxx1112basic_stringIcSt11char_traitsIcESaIcEED1Ev(ptr noundef nonnull align 8 dereferenceable(32) %error_string_) #22
  ret void
}